; Function Attrs: mustprogress nounwind uwtable
define void @_ZN7rocksdb14VersionBuilderD2Ev(ptr nocapture noundef nonnull align 8 dereferenceable(8) %this) unnamed_addr #0 align 2 personality ptr @__gxx_personality_v0 {
entry:
  %0 = load ptr, ptr %this, align 8
  %cmp.not.i = icmp eq ptr %0, null
  br i1 %cmp.not.i, label %_ZNSt10unique_ptrIN7rocksdb14VersionBuilder3RepESt14default_deleteIS2_EED2Ev.exit, label %_ZNKSt14default_deleteIN7rocksdb14VersionBuilder3RepEEclEPS2_.exit.i

_ZNKSt14default_deleteIN7rocksdb14VersionBuilder3RepEEclEPS2_.exit.i: ; preds = %entry
  tail call void @_ZN7rocksdb14VersionBuilder3RepD2Ev(ptr noundef nonnull align 8 dereferenceable(312) %0) #23
  tail call void @_ZdlPv(ptr noundef nonnull %0) #21
  br label %_ZNSt10unique_ptrIN7rocksdb14VersionBuilder3RepESt14default_deleteIS2_EED2Ev.exit

_ZNSt10unique_ptrIN7rocksdb14VersionBuilder3RepESt14default_deleteIS2_EED2Ev.exit: ; preds = %entry, %_ZNKSt14default_deleteIN7rocksdb14VersionBuilder3RepEEclEPS2_.exit.i
  store ptr null, ptr %this, align 8
  ret void
}